target datalayout = "e-m:e-p270:32:32-p271:32:32-p272:64:64-i64:64-i128:128-f80:128-n8:16:32:64-S128"
target triple = "x86_64-unknown-linux-gnu"

%"class.cvc5::internal::prop::SatLiteral" = type { i64 }
%"class.cvc5::internal::NodeTemplate" = type { ptr }
%"class.std::__cxx11::basic_string" = type { %"struct.std::__cxx11::basic_string<char>::_Alloc_hider", i64, %union.anon }
%"struct.std::__cxx11::basic_string<char>::_Alloc_hider" = type { ptr }
%union.anon = type { i64, [8 x i8] }
%"class.cvc5::internal::prop::ProofCnfStream" = type { %"class.cvc5::internal::EnvObj", %"class.cvc5::internal::ProofGenerator", ptr, i8, %"class.cvc5::context::CDHashSet", %"class.cvc5::context::CDHashSet", ptr, %"class.cvc5::internal::LazyCDProof", %"class.cvc5::internal::TheoryProofStepBuffer", %"class.cvc5::context::CDHashSet.43", %"class.cvc5::internal::NodeTemplate", %"class.std::map", %"class.cvc5::internal::prop::OptimizedClausesManager" }
%"class.cvc5::internal::EnvObj" = type { ptr, ptr }
%"class.cvc5::internal::ProofGenerator" = type { ptr }
%"class.cvc5::context::CDHashSet" = type { %"class.cvc5::context::CDInsertHashMap" }
%"class.cvc5::context::CDInsertHashMap" = type { %"class.cvc5::context::ContextObj", ptr, i64 }
%"class.cvc5::context::ContextObj" = type { ptr, ptr, ptr, ptr, ptr }
%"class.cvc5::internal::LazyCDProof" = type { %"class.cvc5::internal::CDProof.base", %"class.cvc5::context::CDHashMap.8", ptr, i8, %"class.cvc5::context::CDHashSet.23" }
%"class.cvc5::internal::CDProof.base" = type <{ %"class.cvc5::internal::EnvObj", %"class.cvc5::internal::ProofGenerator", %"class.cvc5::context::Context", %"class.cvc5::context::CDHashMap", %"class.std::__cxx11::basic_string", i8 }>
%"class.cvc5::context::Context" = type { ptr, %"class.std::vector", ptr, ptr }
%"class.std::vector" = type { %"struct.std::_Vector_base" }
%"struct.std::_Vector_base" = type { %"struct.std::_Vector_base<cvc5::context::Scope *, std::allocator<cvc5::context::Scope *>>::_Vector_impl" }
%"struct.std::_Vector_base<cvc5::context::Scope *, std::allocator<cvc5::context::Scope *>>::_Vector_impl" = type { %"struct.std::_Vector_base<cvc5::context::Scope *, std::allocator<cvc5::context::Scope *>>::_Vector_impl_data" }
%"struct.std::_Vector_base<cvc5::context::Scope *, std::allocator<cvc5::context::Scope *>>::_Vector_impl_data" = type { ptr, ptr, ptr }
%"class.cvc5::context::CDHashMap" = type { %"class.cvc5::context::ContextObj", %"class.std::unordered_map", ptr, ptr }
%"class.std::unordered_map" = type { %"class.std::_Hashtable" }
%"class.std::_Hashtable" = type { ptr, i64, %"struct.std::__detail::_Hash_node_base", i64, %"struct.std::__detail::_Prime_rehash_policy", ptr }
%"struct.std::__detail::_Hash_node_base" = type { ptr }
%"struct.std::__detail::_Prime_rehash_policy" = type { float, i64 }
%"class.cvc5::context::CDHashMap.8" = type { %"class.cvc5::context::ContextObj", %"class.std::unordered_map.9", ptr, ptr }
%"class.std::unordered_map.9" = type { %"class.std::_Hashtable.10" }
%"class.std::_Hashtable.10" = type { ptr, i64, %"struct.std::__detail::_Hash_node_base", i64, %"struct.std::__detail::_Prime_rehash_policy", ptr }
%"class.cvc5::context::CDHashSet.23" = type { %"class.cvc5::context::CDInsertHashMap.24" }
%"class.cvc5::context::CDInsertHashMap.24" = type { %"class.cvc5::context::ContextObj", ptr, i64 }
%"class.cvc5::internal::TheoryProofStepBuffer" = type { %"class.cvc5::internal::ProofStepBuffer" }
%"class.cvc5::internal::ProofStepBuffer" = type { i8, ptr, %"class.std::vector.25", i8, %"class.std::unordered_set" }
%"class.std::vector.25" = type { %"struct.std::_Vector_base.26" }
%"struct.std::_Vector_base.26" = type { %"struct.std::_Vector_base<std::pair<cvc5::internal::NodeTemplate<true>, cvc5::internal::ProofStep>, std::allocator<std::pair<cvc5::internal::NodeTemplate<true>, cvc5::internal::ProofStep>>>::_Vector_impl" }
%"struct.std::_Vector_base<std::pair<cvc5::internal::NodeTemplate<true>, cvc5::internal::ProofStep>, std::allocator<std::pair<cvc5::internal::NodeTemplate<true>, cvc5::internal::ProofStep>>>::_Vector_impl" = type { %"struct.std::_Vector_base<std::pair<cvc5::internal::NodeTemplate<true>, cvc5::internal::ProofStep>, std::allocator<std::pair<cvc5::internal::NodeTemplate<true>, cvc5::internal::ProofStep>>>::_Vector_impl_data" }
%"struct.std::_Vector_base<std::pair<cvc5::internal::NodeTemplate<true>, cvc5::internal::ProofStep>, std::allocator<std::pair<cvc5::internal::NodeTemplate<true>, cvc5::internal::ProofStep>>>::_Vector_impl_data" = type { ptr, ptr, ptr }
%"class.std::unordered_set" = type { %"class.std::_Hashtable.30" }
%"class.std::_Hashtable.30" = type { ptr, i64, %"struct.std::__detail::_Hash_node_base", i64, %"struct.std::__detail::_Prime_rehash_policy", ptr }
%"class.cvc5::context::CDHashSet.43" = type { %"class.cvc5::context::CDInsertHashMap.44" }
%"class.cvc5::context::CDInsertHashMap.44" = type { %"class.cvc5::context::ContextObj", ptr, i64 }
%"class.std::map" = type { %"class.std::_Rb_tree" }
%"class.std::_Rb_tree" = type { %"struct.std::_Rb_tree<int, std::pair<const int, std::vector<std::shared_ptr<cvc5::internal::ProofNode>>>, std::_Select1st<std::pair<const int, std::vector<std::shared_ptr<cvc5::internal::ProofNode>>>>, std::less<int>>::_Rb_tree_impl" }
%"struct.std::_Rb_tree<int, std::pair<const int, std::vector<std::shared_ptr<cvc5::internal::ProofNode>>>, std::_Select1st<std::pair<const int, std::vector<std::shared_ptr<cvc5::internal::ProofNode>>>>, std::less<int>>::_Rb_tree_impl" = type { %"struct.std::_Rb_tree_key_compare", %"struct.std::_Rb_tree_header" }
%"struct.std::_Rb_tree_key_compare" = type { %"struct.std::less" }
%"struct.std::less" = type { i8 }
%"struct.std::_Rb_tree_header" = type { %"struct.std::_Rb_tree_node_base", i64 }
%"struct.std::_Rb_tree_node_base" = type { i32, ptr, ptr, ptr }
%"class.cvc5::internal::prop::OptimizedClausesManager" = type { %"class.cvc5::context::ContextNotifyObj", ptr, ptr, ptr, ptr, ptr }
%"class.cvc5::context::ContextNotifyObj" = type { ptr, ptr, ptr }
%"class.cvc5::internal::NodeTemplate.320" = type { ptr }

; Function Attrs: mustprogress nounwind uwtable
define linkonce_odr hidden void @_ZN4cvc58internal12NodeTemplateILb0EED2Ev(ptr noundef nonnull align 8 dereferenceable(8) %this) unnamed_addr #4 comdat align 2 {
entry:
  %this.addr = alloca ptr, align 8
  store ptr %this, ptr %this.addr, align 8
  ret void
}

; Function Attrs: mustprogress nounwind uwtable
define linkonce_odr hidden void @_ZN4cvc58internal12NodeTemplateILb0EEC2ERKS2_(ptr noundef nonnull align 8 dereferenceable(8) %this, ptr noundef nonnull align 8 dereferenceable(8) %e) unnamed_addr #4 comdat align 2 {
entry:
  %this.addr = alloca ptr, align 8
  %e.addr = alloca ptr, align 8
  store ptr %this, ptr %this.addr, align 8
  store ptr %e, ptr %e.addr, align 8
  %this1 = load ptr, ptr %this.addr, align 8
  %0 = load ptr, ptr %e.addr, align 8
  %d_nv = getelementptr inbounds %"class.cvc5::internal::NodeTemplate.320", ptr %0, i32 0, i32 0
  %1 = load ptr, ptr %d_nv, align 8
  %d_nv2 = getelementptr inbounds %"class.cvc5::internal::NodeTemplate.320", ptr %this1, i32 0, i32 0
  store ptr %1, ptr %d_nv2, align 8
  ret void
}

; Function Attrs: mustprogress uwtable
define hidden i64 @_ZN4cvc58internal4prop14ProofCnfStream10getLiteralENS0_12NodeTemplateILb0EEE(ptr noundef nonnull align 8 dereferenceable(848) %this, ptr noundef %node) #5 align 2 personality ptr @__gxx_personality_v0 {
entry:
  %retval = alloca %"class.cvc5::internal::prop::SatLiteral", align 8
  %this.addr = alloca ptr, align 8
  %node.indirect_addr = alloca ptr, align 8
  %agg.tmp = alloca %"class.cvc5::internal::NodeTemplate.320", align 8
  %exn.slot = alloca ptr, align 8
  %ehselector.slot = alloca i32, align 4
  store ptr %this, ptr %this.addr, align 8
  store ptr %node, ptr %node.indirect_addr, align 8
  %this1 = load ptr, ptr %this.addr, align 8
  %d_cnfStream = getelementptr inbounds %"class.cvc5::internal::prop::ProofCnfStream", ptr %this1, i32 0, i32 2
  %0 = load ptr, ptr %d_cnfStream, align 8
  call void @_ZN4cvc58internal12NodeTemplateILb0EEC2ERKS2_(ptr noundef nonnull align 8 dereferenceable(8) %agg.tmp, ptr noundef nonnull align 8 dereferenceable(8) %node)
  %call = invoke i64 @_ZN4cvc58internal4prop9CnfStream10getLiteralENS0_12NodeTemplateILb0EEE(ptr noundef nonnull align 8 dereferenceable(352) %0, ptr noundef %agg.tmp)
          to label %invoke.cont unwind label %lpad

invoke.cont:                                      ; preds = %entry
  %coerce.dive = getelementptr inbounds %"class.cvc5::internal::prop::SatLiteral", ptr %retval, i32 0, i32 0
  store i64 %call, ptr %coerce.dive, align 8
  call void @_ZN4cvc58internal12NodeTemplateILb0EED2Ev(ptr noundef nonnull align 8 dereferenceable(8) %agg.tmp) #3
  %coerce.dive2 = getelementptr inbounds %"class.cvc5::internal::prop::SatLiteral", ptr %retval, i32 0, i32 0
  %1 = load i64, ptr %coerce.dive2, align 8
  ret i64 %1

lpad:                                             ; preds = %entry
  %2 = landingpad { ptr, i32 }
          cleanup
  %3 = extractvalue { ptr, i32 } %2, 0
  store ptr %3, ptr %exn.slot, align 8
  %4 = extractvalue { ptr, i32 } %2, 1
  store i32 %4, ptr %ehselector.slot, align 4
  call void @_ZN4cvc58internal12NodeTemplateILb0EED2Ev(ptr noundef nonnull align 8 dereferenceable(8) %agg.tmp) #3
  br label %eh.resume

eh.resume:                                        ; preds = %lpad
  %exn = load ptr, ptr %exn.slot, align 8
  %sel = load i32, ptr %ehselector.slot, align 4
  %lpad.val = insertvalue { ptr, i32 } poison, ptr %exn, 0
  %lpad.val3 = insertvalue { ptr, i32 } %lpad.val, i32 %sel, 1
  resume { ptr, i32 } %lpad.val3
}