; Function Attrs: mustprogress uwtable
define hidden i64 @_ZN4cvc58internal4prop14ProofCnfStream10getLiteralENS0_12NodeTemplateILb0EEE(ptr nocapture noundef nonnull readonly align 8 dereferenceable(848) %this, ptr nocapture noundef readonly %node) local_unnamed_addr #3 align 2 personality ptr @__gxx_personality_v0 {
entry:
  %agg.tmp = alloca %"class.cvc5::internal::NodeTemplate.320", align 8
  %d_cnfStream = getelementptr inbounds i8, ptr %this, i64 24
  %0 = load ptr, ptr %d_cnfStream, align 8
  %1 = load ptr, ptr %node, align 8
  store ptr %1, ptr %agg.tmp, align 8
  %call = call i64 @_ZN4cvc58internal4prop9CnfStream10getLiteralENS0_12NodeTemplateILb0EEE(ptr noundef nonnull align 8 dereferenceable(352) %0, ptr noundef nonnull %agg.tmp)
  ret i64 %call
}